target datalayout = "e-m:e-p270:32:32-p271:32:32-p272:64:64-i64:64-i128:128-f80:128-n8:16:32:64-S128"
target triple = "x86_64-pc-linux-gnu"

%"struct.cv::UMatDataAutoLock" = type { ptr, ptr }

; Function Attrs: inlinehint mustprogress nounwind uwtable
define linkonce_odr void @_ZSt4swapIPN2cv8UMatDataEENSt9enable_ifIXsr6__and_ISt6__not_ISt15__is_tuple_likeIT_EESt21is_move_constructibleIS6_ESt18is_move_assignableIS6_EEE5valueEvE4typeERS6_SF_(ptr noundef nonnull align 8 dereferenceable(8) %0, ptr noundef nonnull align 8 dereferenceable(8) %1) #5 comdat {
  %3 = alloca ptr, align 8
  %4 = alloca ptr, align 8
  %5 = alloca ptr, align 8
  store ptr %0, ptr %3, align 8, !tbaa !60
  store ptr %1, ptr %4, align 8, !tbaa !60
  call void @llvm.lifetime.start.p0(i64 8, ptr %5) #16
  %6 = load ptr, ptr %3, align 8, !tbaa !60
  %7 = load ptr, ptr %6, align 8, !tbaa !3
  store ptr %7, ptr %5, align 8, !tbaa !3
  %8 = load ptr, ptr %4, align 8, !tbaa !60
  %9 = load ptr, ptr %8, align 8, !tbaa !3
  %10 = load ptr, ptr %3, align 8, !tbaa !60
  store ptr %9, ptr %10, align 8, !tbaa !3
  %11 = load ptr, ptr %5, align 8, !tbaa !3
  %12 = load ptr, ptr %4, align 8, !tbaa !60
  store ptr %11, ptr %12, align 8, !tbaa !3
  call void @llvm.lifetime.end.p0(i64 8, ptr %5) #16
  ret void
}

; Function Attrs: mustprogress nounwind uwtable
define internal noundef i64 @_ZN2cvL20getUMatDataLockIndexEPKNS_8UMatDataE(ptr noundef %0) #0 {
  %2 = alloca ptr, align 8
  %3 = alloca i64, align 8
  store ptr %0, ptr %2, align 8, !tbaa !3
  call void @llvm.lifetime.start.p0(i64 8, ptr %3) #16
  %4 = load ptr, ptr %2, align 8, !tbaa !3
  %5 = ptrtoint ptr %4 to i64
  %6 = urem i64 %5, 31
  store i64 %6, ptr %3, align 8, !tbaa !50
  %7 = load i64, ptr %3, align 8, !tbaa !50
  call void @llvm.lifetime.end.p0(i64 8, ptr %3) #16
  ret i64 %7
}

; Function Attrs: mustprogress uwtable
define void @_ZN2cv16UMatDataAutoLockC2EPNS_8UMatDataES2_(ptr noundef nonnull align 8 dereferenceable(16) %0, ptr noundef %1, ptr noundef %2) unnamed_addr #3 align 2 {
  %4 = alloca ptr, align 8
  %5 = alloca ptr, align 8
  %6 = alloca ptr, align 8
  store ptr %0, ptr %4, align 8, !tbaa !53
  store ptr %1, ptr %5, align 8, !tbaa !3
  store ptr %2, ptr %6, align 8, !tbaa !3
  %7 = load ptr, ptr %4, align 8
  %8 = getelementptr inbounds nuw %"struct.cv::UMatDataAutoLock", ptr %7, i32 0, i32 0
  %9 = load ptr, ptr %5, align 8, !tbaa !3
  store ptr %9, ptr %8, align 8, !tbaa !55
  %10 = getelementptr inbounds nuw %"struct.cv::UMatDataAutoLock", ptr %7, i32 0, i32 1
  %11 = load ptr, ptr %6, align 8, !tbaa !3
  store ptr %11, ptr %10, align 8, !tbaa !57
  %12 = getelementptr inbounds nuw %"struct.cv::UMatDataAutoLock", ptr %7, i32 0, i32 0
  %13 = load ptr, ptr %12, align 8, !tbaa !55
  %14 = call noundef i64 @_ZN2cvL20getUMatDataLockIndexEPKNS_8UMatDataE(ptr noundef %13)
  %15 = getelementptr inbounds nuw %"struct.cv::UMatDataAutoLock", ptr %7, i32 0, i32 1
  %16 = load ptr, ptr %15, align 8, !tbaa !57
  %17 = call noundef i64 @_ZN2cvL20getUMatDataLockIndexEPKNS_8UMatDataE(ptr noundef %16)
  %18 = icmp ugt i64 %14, %17
  br i1 %18, label %19, label %22

19:                                               ; preds = %3
  %20 = getelementptr inbounds nuw %"struct.cv::UMatDataAutoLock", ptr %7, i32 0, i32 0
  %21 = getelementptr inbounds nuw %"struct.cv::UMatDataAutoLock", ptr %7, i32 0, i32 1
  call void @_ZSt4swapIPN2cv8UMatDataEENSt9enable_ifIXsr6__and_ISt6__not_ISt15__is_tuple_likeIT_EESt21is_move_constructibleIS6_ESt18is_move_assignableIS6_EEE5valueEvE4typeERS6_SF_(ptr noundef nonnull align 8 dereferenceable(8) %20, ptr noundef nonnull align 8 dereferenceable(8) %21) #16
  br label %22

22:                                               ; preds = %19, %3
  %23 = call noundef nonnull align 8 dereferenceable(24) ptr @_ZN2cvL21getUMatDataAutoLockerEv()
  %24 = getelementptr inbounds nuw %"struct.cv::UMatDataAutoLock", ptr %7, i32 0, i32 0
  %25 = getelementptr inbounds nuw %"struct.cv::UMatDataAutoLock", ptr %7, i32 0, i32 1
  call void @_ZN2cv18UMatDataAutoLocker4lockERPNS_8UMatDataES3_(ptr noundef nonnull align 8 dereferenceable(24) %23, ptr noundef nonnull align 8 dereferenceable(8) %24, ptr noundef nonnull align 8 dereferenceable(8) %25)
  ret void
}