; Function Attrs: mustprogress uwtable
define void @_ZN2cv16UMatDataAutoLockC2EPNS_8UMatDataES2_(ptr noundef nonnull align 8 dereferenceable(16) initializes((0, 16)) %0, ptr noundef %1, ptr noundef %2) unnamed_addr #4 align 2 {
  store ptr %1, ptr %0, align 8, !tbaa !30
  %4 = getelementptr inbounds nuw i8, ptr %0, i64 8
  store ptr %2, ptr %4, align 8, !tbaa !32
  %5 = ptrtoint ptr %1 to i64
  %6 = urem i64 %5, 31
  %7 = ptrtoint ptr %2 to i64
  %8 = urem i64 %7, 31
  %9 = icmp samesign ugt i64 %6, %8
  br i1 %9, label %10, label %11

10:                                               ; preds = %3
  store ptr %2, ptr %0, align 8, !tbaa !36
  store ptr %1, ptr %4, align 8, !tbaa !36
  br label %11

11:                                               ; preds = %10, %3
  %12 = tail call fastcc noundef nonnull align 8 dereferenceable(24) ptr @_ZN2cvL21getUMatDataAutoLockerEv()
  tail call void @_ZN2cv18UMatDataAutoLocker4lockERPNS_8UMatDataES3_(ptr noundef nonnull align 8 dereferenceable(24) %12, ptr noundef nonnull align 8 dereferenceable(8) %0, ptr noundef nonnull align 8 dereferenceable(8) %4)
  ret void
}